; Function Attrs: null_pointer_is_valid sspstrong uwtable
define internal noundef i32 @cigi4_add_short_component_control(ptr noundef %0, ptr readnone captures(none) %1, ptr noundef %2, ptr readnone captures(none) %3) #0 {
  %5 = load i32, ptr @hf_cigi3_short_component_control_component_id, align 4
  %.b29 = load i1, ptr @cigi_byte_order, align 4
  %6 = select i1 %.b29, i32 -2147483648, i32 0
  %7 = tail call ptr @proto_tree_add_item(ptr noundef %2, i32 noundef %5, ptr noundef %0, i32 noundef 0, i32 noundef 2, i32 noundef %6)
  %8 = load i32, ptr @hf_cigi3_3_short_component_control_component_class, align 4
  %.b28 = load i1, ptr @cigi_byte_order, align 4
  %9 = select i1 %.b28, i32 -2147483648, i32 0
  %10 = tail call ptr @proto_tree_add_item(ptr noundef %2, i32 noundef %8, ptr noundef %0, i32 noundef 2, i32 noundef 1, i32 noundef %9)
  %11 = load i32, ptr @hf_cigi3_short_component_control_component_state, align 4
  %.b27 = load i1, ptr @cigi_byte_order, align 4
  %12 = select i1 %.b27, i32 -2147483648, i32 0
  %13 = tail call ptr @proto_tree_add_item(ptr noundef %2, i32 noundef %11, ptr noundef %0, i32 noundef 3, i32 noundef 1, i32 noundef %12)
  %14 = load i32, ptr @hf_cigi3_short_component_control_instance_id, align 4
  %.b26 = load i1, ptr @cigi_byte_order, align 4
  %15 = select i1 %.b26, i32 -2147483648, i32 0
  %16 = tail call ptr @proto_tree_add_item(ptr noundef %2, i32 noundef %14, ptr noundef %0, i32 noundef 4, i32 noundef 2, i32 noundef %15)
  %17 = load i32, ptr @hf_cigi3_short_component_control_data_1, align 4
  %.b25 = load i1, ptr @cigi_byte_order, align 4
  %18 = select i1 %.b25, i32 -2147483648, i32 0
  %19 = tail call ptr @proto_tree_add_item(ptr noundef %2, i32 noundef %17, ptr noundef %0, i32 noundef 12, i32 noundef 4, i32 noundef %18)
  %20 = load i32, ptr @hf_cigi3_short_component_control_data_2, align 4
  %.b = load i1, ptr @cigi_byte_order, align 4
  %21 = select i1 %.b, i32 -2147483648, i32 0
  %22 = tail call ptr @proto_tree_add_item(ptr noundef %2, i32 noundef %20, ptr noundef %0, i32 noundef 16, i32 noundef 4, i32 noundef %21)
  ret i32 20
}